; Function Attrs: nounwind uwtable
define void @lv_display_set_color_format(ptr noundef %0, i32 noundef %1) local_unnamed_addr #0 {
  %3 = alloca %struct._lv_event_t, align 8
  %4 = icmp eq ptr %0, null
  br i1 %4, label %5, label %.thread

5:                                                ; preds = %2
  %6 = load ptr, ptr getelementptr inbounds nuw (i8, ptr @lv_global, i64 40), align 8, !tbaa !33
  %7 = icmp eq ptr %6, null
  br i1 %7, label %39, label %.thread

.thread:                                          ; preds = %2, %5
  %.017 = phi ptr [ %6, %5 ], [ %0, %2 ]
  %8 = getelementptr inbounds nuw i8, ptr %.017, i64 92
  store i32 %1, ptr %8, align 4, !tbaa !22
  %9 = getelementptr inbounds nuw i8, ptr %.017, i64 752
  %10 = load ptr, ptr %9, align 8, !tbaa !23
  %11 = getelementptr inbounds nuw i8, ptr %10, i64 24
  store i32 %1, ptr %11, align 8, !tbaa !30
  %12 = getelementptr inbounds nuw i8, ptr %.017, i64 32
  %13 = load ptr, ptr %12, align 8, !tbaa !63
  %.not = icmp eq ptr %13, null
  br i1 %.not, label %21, label %14

14:                                               ; preds = %.thread
  %15 = load i64, ptr %13, align 8
  %16 = shl i32 %1, 8
  %17 = and i32 %16, 65280
  %18 = zext nneg i32 %17 to i64
  %19 = and i64 %15, -65281
  %20 = or disjoint i64 %19, %18
  store i64 %20, ptr %13, align 8
  br label %21

21:                                               ; preds = %14, %.thread
  %22 = getelementptr inbounds nuw i8, ptr %.017, i64 40
  %23 = load ptr, ptr %22, align 8, !tbaa !64
  %.not15 = icmp eq ptr %23, null
  br i1 %.not15, label %31, label %24

24:                                               ; preds = %21
  %25 = load i64, ptr %23, align 8
  %26 = shl i32 %1, 8
  %27 = and i32 %26, 65280
  %28 = zext nneg i32 %27 to i64
  %29 = and i64 %25, -65281
  %30 = or disjoint i64 %29, %28
  store i64 %30, ptr %23, align 8
  br label %31

31:                                               ; preds = %24, %21
  call void @llvm.lifetime.start.p0(i64 56, ptr nonnull %3) #13
  call void @lv_memset(ptr noundef nonnull %3, i8 noundef zeroext 0, i64 noundef 56) #13
  %32 = getelementptr inbounds nuw i8, ptr %3, i64 16
  store i32 55, ptr %32, align 8, !tbaa !48
  store ptr %.017, ptr %3, align 8, !tbaa !50
  %33 = getelementptr inbounds nuw i8, ptr %3, i64 8
  store ptr %.017, ptr %33, align 8, !tbaa !51
  %34 = getelementptr inbounds nuw i8, ptr %3, i64 32
  store ptr null, ptr %34, align 8, !tbaa !52
  %35 = getelementptr inbounds nuw i8, ptr %.017, i64 856
  %36 = call i32 @lv_event_send(ptr noundef nonnull %35, ptr noundef nonnull %3, i1 noundef zeroext true) #13
  %.not.i = icmp eq i32 %36, 1
  br i1 %.not.i, label %37, label %lv_display_send_event.exit

37:                                               ; preds = %31
  %38 = call i32 @lv_event_send(ptr noundef nonnull %35, ptr noundef nonnull %3, i1 noundef zeroext false) #13
  br label %lv_display_send_event.exit

lv_display_send_event.exit:                       ; preds = %31, %37
  call void @llvm.lifetime.end.p0(i64 56, ptr nonnull %3) #13
  br label %39

39:                                               ; preds = %5, %lv_display_send_event.exit
  ret void
}